target datalayout = "e-m:e-p270:32:32-p271:32:32-p272:64:64-i64:64-i128:128-f80:128-n8:16:32:64-S128"
target triple = "x86_64-pc-linux-gnu"

%struct.pmix_compress_base_t = type { i64, i8, i8 }
%struct.pmix_mca_base_framework_t = type { ptr, ptr, ptr, ptr, ptr, ptr, i32, i32, ptr, ptr, i32, i32, %struct.pmix_list_t, %struct.pmix_list_t }
%struct.pmix_list_t = type { %struct.pmix_object_t, %struct.pmix_list_item_t, i64 }
%struct.pmix_object_t = type { %union.pthread_mutex_t, ptr, i32, %struct.pmix_tma }
%union.pthread_mutex_t = type { %struct.__pthread_mutex_s }
%struct.__pthread_mutex_s = type { i32, i32, i32, i32, i32, i16, i16, %struct.__pthread_internal_list }
%struct.__pthread_internal_list = type { ptr, ptr }
%struct.pmix_tma = type { ptr, ptr, ptr, ptr, ptr, ptr, ptr, ptr }
%struct.pmix_list_item_t = type { %struct.pmix_object_t, ptr, ptr, i32 }
%struct.pmix_output_desc_t = type { i8, i8, i32, i8, i32, ptr, ptr, i32, ptr, i32, i8, i8, i8, i8, ptr, i32, i32 }
%struct.z_stream_s = type { ptr, i32, i64, ptr, i32, i64, ptr, ptr, ptr, ptr, ptr, i32, i64, i64 }

@pmix_compress_base = external global %struct.pmix_compress_base_t, align 8
@.str = private unnamed_addr constant [7 x i8] c"1.2.11\00", align 1
@pmix_pcompress_base_framework = external global %struct.pmix_mca_base_framework_t, align 8
@pmix_output_info = external global [0 x %struct.pmix_output_desc_t], align 8
@.str.1 = private unnamed_addr constant [48 x i8] c"COMPRESS INPUT BLOCK OF LEN %lu OUTPUT SIZE %lu\00", align 1

; Function Attrs: nounwind uwtable
define internal zeroext i1 @zlib_compress(ptr noundef %0, i64 noundef %1, ptr noundef %2, ptr noundef %3) #0 {
  %5 = alloca i1, align 1
  %6 = alloca ptr, align 8
  %7 = alloca i64, align 8
  %8 = alloca ptr, align 8
  %9 = alloca ptr, align 8
  %10 = alloca %struct.z_stream_s, align 8
  %11 = alloca i64, align 8
  %12 = alloca i64, align 8
  %13 = alloca ptr, align 8
  %14 = alloca ptr, align 8
  %15 = alloca i32, align 4
  %16 = alloca i32, align 4
  %17 = alloca i32, align 4
  store ptr %0, ptr %6, align 8, !tbaa !3
  store i64 %1, ptr %7, align 8, !tbaa !8
  store ptr %2, ptr %8, align 8, !tbaa !10
  store ptr %3, ptr %9, align 8, !tbaa !12
  call void @llvm.lifetime.start.p0(i64 112, ptr %10) #8
  call void @llvm.lifetime.start.p0(i64 8, ptr %11) #8
  call void @llvm.lifetime.start.p0(i64 8, ptr %12) #8
  call void @llvm.lifetime.start.p0(i64 8, ptr %13) #8
  call void @llvm.lifetime.start.p0(i64 8, ptr %14) #8
  call void @llvm.lifetime.start.p0(i64 4, ptr %15) #8
  call void @llvm.lifetime.start.p0(i64 4, ptr %16) #8
  %18 = load ptr, ptr %8, align 8, !tbaa !10
  store ptr null, ptr %18, align 8, !tbaa !3
  %19 = load ptr, ptr %9, align 8, !tbaa !12
  store i64 0, ptr %19, align 8, !tbaa !8
  %20 = load i64, ptr %7, align 8, !tbaa !8
  %21 = load i64, ptr @pmix_compress_base, align 8, !tbaa !14
  %22 = icmp ult i64 %20, %21
  br i1 %22, label %26, label %23

23:                                               ; preds = %4
  %24 = load i64, ptr %7, align 8, !tbaa !8
  %25 = icmp uge i64 %24, 4294967295
  br i1 %25, label %26, label %27

26:                                               ; preds = %23, %4
  store i1 false, ptr %5, align 1
  store i32 1, ptr %17, align 4
  br label %108

27:                                               ; preds = %23
  %28 = load i64, ptr %7, align 8, !tbaa !8
  %29 = trunc i64 %28 to i32
  store i32 %29, ptr %15, align 4, !tbaa !17
  call void @llvm.memset.p0.i64(ptr align 8 %10, i8 0, i64 112, i1 false)
  %30 = call i32 @deflateInit_(ptr noundef %10, i32 noundef 9, ptr noundef @.str, i32 noundef 112)
  %31 = icmp ne i32 0, %30
  br i1 %31, label %32, label %33

32:                                               ; preds = %27
  store i1 false, ptr %5, align 1
  store i32 1, ptr %17, align 4
  br label %108

33:                                               ; preds = %27
  %34 = load i64, ptr %7, align 8, !tbaa !8
  %35 = call i64 @deflateBound(ptr noundef %10, i64 noundef %34)
  store i64 %35, ptr %11, align 8, !tbaa !8
  %36 = load i64, ptr %11, align 8, !tbaa !8
  %37 = load i64, ptr %7, align 8, !tbaa !8
  %38 = icmp uge i64 %36, %37
  br i1 %38, label %39, label %41

39:                                               ; preds = %33
  %40 = call i32 @deflateEnd(ptr noundef %10)
  store i1 false, ptr %5, align 1
  store i32 1, ptr %17, align 4
  br label %108

41:                                               ; preds = %33
  %42 = load i64, ptr %11, align 8, !tbaa !8
  %43 = call noalias ptr @malloc(i64 noundef %42) #9
  store ptr %43, ptr %13, align 8, !tbaa !3
  %44 = icmp eq ptr null, %43
  br i1 %44, label %45, label %47

45:                                               ; preds = %41
  %46 = call i32 @deflateEnd(ptr noundef %10)
  store i1 false, ptr %5, align 1
  store i32 1, ptr %17, align 4
  br label %108

47:                                               ; preds = %41
  %48 = load ptr, ptr %6, align 8, !tbaa !3
  %49 = getelementptr inbounds nuw %struct.z_stream_s, ptr %10, i32 0, i32 0
  store ptr %48, ptr %49, align 8, !tbaa !19
  %50 = load i64, ptr %7, align 8, !tbaa !8
  %51 = trunc i64 %50 to i32
  %52 = getelementptr inbounds nuw %struct.z_stream_s, ptr %10, i32 0, i32 1
  store i32 %51, ptr %52, align 8, !tbaa !22
  %53 = load i64, ptr %11, align 8, !tbaa !8
  %54 = trunc i64 %53 to i32
  %55 = getelementptr inbounds nuw %struct.z_stream_s, ptr %10, i32 0, i32 4
  store i32 %54, ptr %55, align 8, !tbaa !23
  %56 = load ptr, ptr %13, align 8, !tbaa !3
  %57 = getelementptr inbounds nuw %struct.z_stream_s, ptr %10, i32 0, i32 3
  store ptr %56, ptr %57, align 8, !tbaa !24
  %58 = call i32 @deflate(ptr noundef %10, i32 noundef 4)
  store i32 %58, ptr %16, align 4, !tbaa !17
  %59 = call i32 @deflateEnd(ptr noundef %10)
  %60 = load i32, ptr %16, align 4, !tbaa !17
  %61 = icmp ne i32 1, %60
  br i1 %61, label %62, label %64

62:                                               ; preds = %47
  %63 = load ptr, ptr %13, align 8, !tbaa !3
  call void @free(ptr noundef %63) #8
  store i1 false, ptr %5, align 1
  store i32 1, ptr %17, align 4
  br label %108

64:                                               ; preds = %47
  %65 = load i64, ptr %11, align 8, !tbaa !8
  %66 = getelementptr inbounds nuw %struct.z_stream_s, ptr %10, i32 0, i32 4
  %67 = load i32, ptr %66, align 8, !tbaa !23
  %68 = zext i32 %67 to i64
  %69 = sub i64 %65, %68
  %70 = add i64 %69, 4
  store i64 %70, ptr %12, align 8, !tbaa !8
  %71 = load i64, ptr %12, align 8, !tbaa !8
  %72 = call noalias ptr @malloc(i64 noundef %71) #9
  store ptr %72, ptr %14, align 8, !tbaa !3
  %73 = load ptr, ptr %14, align 8, !tbaa !3
  %74 = icmp eq ptr null, %73
  br i1 %74, label %75, label %77

75:                                               ; preds = %64
  %76 = load ptr, ptr %13, align 8, !tbaa !3
  call void @free(ptr noundef %76) #8
  store i1 false, ptr %5, align 1
  store i32 1, ptr %17, align 4
  br label %108

77:                                               ; preds = %64
  %78 = load ptr, ptr %14, align 8, !tbaa !3
  %79 = load ptr, ptr %8, align 8, !tbaa !10
  store ptr %78, ptr %79, align 8, !tbaa !3
  %80 = load i64, ptr %12, align 8, !tbaa !8
  %81 = load ptr, ptr %9, align 8, !tbaa !12
  store i64 %80, ptr %81, align 8, !tbaa !8
  %82 = load ptr, ptr %14, align 8, !tbaa !3
  call void @llvm.memcpy.p0.p0.i64(ptr align 1 %82, ptr align 4 %15, i64 4, i1 false)
  %83 = load ptr, ptr %14, align 8, !tbaa !3
  %84 = getelementptr inbounds nuw i8, ptr %83, i64 4
  store ptr %84, ptr %14, align 8, !tbaa !3
  %85 = load ptr, ptr %14, align 8, !tbaa !3
  %86 = load ptr, ptr %13, align 8, !tbaa !3
  %87 = load i64, ptr %12, align 8, !tbaa !8
  %88 = sub i64 %87, 4
  call void @llvm.memcpy.p0.p0.i64(ptr align 1 %85, ptr align 1 %86, i64 %88, i1 false)
  %89 = load ptr, ptr %13, align 8, !tbaa !3
  call void @free(ptr noundef %89) #8
  %90 = load i32, ptr getelementptr inbounds nuw (%struct.pmix_mca_base_framework_t, ptr @pmix_pcompress_base_framework, i32 0, i32 11), align 4, !tbaa !25
  %91 = icmp sge i32 %90, 0
  br i1 %91, label %92, label %107

92:                                               ; preds = %77
  %93 = load i32, ptr getelementptr inbounds nuw (%struct.pmix_mca_base_framework_t, ptr @pmix_pcompress_base_framework, i32 0, i32 11), align 4, !tbaa !25
  %94 = icmp slt i32 %93, 64
  br i1 %94, label %95, label %107

95:                                               ; preds = %92
  %96 = load i32, ptr getelementptr inbounds nuw (%struct.pmix_mca_base_framework_t, ptr @pmix_pcompress_base_framework, i32 0, i32 11), align 4, !tbaa !25
  %97 = sext i32 %96 to i64
  %98 = getelementptr inbounds [0 x %struct.pmix_output_desc_t], ptr @pmix_output_info, i64 0, i64 %97
  %99 = getelementptr inbounds nuw %struct.pmix_output_desc_t, ptr %98, i32 0, i32 2
  %100 = load i32, ptr %99, align 4, !tbaa !34
  %101 = icmp sge i32 %100, 2
  br i1 %101, label %102, label %107

102:                                              ; preds = %95
  %103 = load i32, ptr getelementptr inbounds nuw (%struct.pmix_mca_base_framework_t, ptr @pmix_pcompress_base_framework, i32 0, i32 11), align 4, !tbaa !25
  %104 = load i64, ptr %7, align 8, !tbaa !8
  %105 = load i64, ptr %12, align 8, !tbaa !8
  %106 = sub i64 %105, 4
  call void (i32, ptr, ...) @pmix_output(i32 noundef %103, ptr noundef @.str.1, i64 noundef %104, i64 noundef %106)
  br label %107

107:                                              ; preds = %102, %95, %92, %77
  store i1 true, ptr %5, align 1
  store i32 1, ptr %17, align 4
  br label %108

108:                                              ; preds = %107, %75, %62, %45, %39, %32, %26
  call void @llvm.lifetime.end.p0(i64 4, ptr %16) #8
  call void @llvm.lifetime.end.p0(i64 4, ptr %15) #8
  call void @llvm.lifetime.end.p0(i64 8, ptr %14) #8
  call void @llvm.lifetime.end.p0(i64 8, ptr %13) #8
  call void @llvm.lifetime.end.p0(i64 8, ptr %12) #8
  call void @llvm.lifetime.end.p0(i64 8, ptr %11) #8
  call void @llvm.lifetime.end.p0(i64 112, ptr %10) #8
  %109 = load i1, ptr %5, align 1
  ret i1 %109
}