; Function Attrs: nounwind uwtable
define internal noundef zeroext i1 @zlib_compress(ptr noundef %0, i64 noundef %1, ptr noundef writeonly captures(none) initializes((0, 8)) %2, ptr noundef writeonly captures(none) initializes((0, 8)) %3) #0 {
  %5 = alloca %struct.z_stream_s, align 8
  call void @llvm.lifetime.start.p0(i64 112, ptr nonnull %5) #9
  store ptr null, ptr %2, align 8, !tbaa !3
  store i64 0, ptr %3, align 8, !tbaa !8
  %6 = load i64, ptr @pmix_compress_base, align 8, !tbaa !10
  %7 = icmp ult i64 %1, %6
  %8 = icmp ugt i64 %1, 4294967294
  %or.cond = or i1 %8, %7
  br i1 %or.cond, label %46, label %9

9:                                                ; preds = %4
  %10 = trunc nuw i64 %1 to i32
  call void @llvm.memset.p0.i64(ptr noundef nonnull align 8 dereferenceable(112) %5, i8 0, i64 112, i1 false)
  %11 = call i32 @deflateInit_(ptr noundef nonnull %5, i32 noundef 9, ptr noundef nonnull @.str, i32 noundef 112) #9
  %.not = icmp eq i32 %11, 0
  br i1 %.not, label %12, label %46

12:                                               ; preds = %9
  %13 = call i64 @deflateBound(ptr noundef nonnull %5, i64 noundef %1) #9
  %.not39 = icmp ult i64 %13, %1
  br i1 %.not39, label %16, label %14

14:                                               ; preds = %12
  %15 = call i32 @deflateEnd(ptr noundef nonnull %5) #9
  br label %46

16:                                               ; preds = %12
  %17 = call noalias ptr @malloc(i64 noundef %13) #10
  %18 = icmp eq ptr %17, null
  br i1 %18, label %19, label %21

19:                                               ; preds = %16
  %20 = call i32 @deflateEnd(ptr noundef nonnull %5) #9
  br label %46

21:                                               ; preds = %16
  store ptr %0, ptr %5, align 8, !tbaa !13
  %22 = getelementptr inbounds nuw i8, ptr %5, i64 8
  store i32 %10, ptr %22, align 8, !tbaa !17
  %23 = trunc nuw i64 %13 to i32
  %24 = getelementptr inbounds nuw i8, ptr %5, i64 32
  store i32 %23, ptr %24, align 8, !tbaa !18
  %25 = getelementptr inbounds nuw i8, ptr %5, i64 24
  store ptr %17, ptr %25, align 8, !tbaa !19
  %26 = call i32 @deflate(ptr noundef nonnull %5, i32 noundef 4) #9
  %27 = call i32 @deflateEnd(ptr noundef nonnull %5) #9
  %.not40 = icmp eq i32 %26, 1
  br i1 %.not40, label %29, label %28

28:                                               ; preds = %21
  call void @free(ptr noundef nonnull %17) #9
  br label %46

29:                                               ; preds = %21
  %30 = load i32, ptr %24, align 8, !tbaa !18
  %31 = zext i32 %30 to i64
  %32 = sub nsw i64 %13, %31
  %33 = add nsw i64 %32, 4
  %34 = call noalias ptr @malloc(i64 noundef %33) #10
  %35 = icmp eq ptr %34, null
  br i1 %35, label %36, label %37

36:                                               ; preds = %29
  call void @free(ptr noundef nonnull %17) #9
  br label %46

37:                                               ; preds = %29
  store ptr %34, ptr %2, align 8, !tbaa !3
  store i64 %33, ptr %3, align 8, !tbaa !8
  store i32 %10, ptr %34, align 1
  %38 = getelementptr inbounds nuw i8, ptr %34, i64 4
  call void @llvm.memcpy.p0.p0.i64(ptr nonnull align 1 %38, ptr nonnull align 1 %17, i64 %32, i1 false)
  call void @free(ptr noundef nonnull %17) #9
  %39 = load i32, ptr getelementptr inbounds nuw (i8, ptr @pmix_pcompress_base_framework, i64 76), align 4, !tbaa !20
  %or.cond3 = icmp ult i32 %39, 64
  br i1 %or.cond3, label %40, label %46

40:                                               ; preds = %37
  %41 = zext nneg i32 %39 to i64
  %42 = getelementptr inbounds nuw [0 x %struct.pmix_output_desc_t], ptr @pmix_output_info, i64 0, i64 %41, i32 2
  %43 = load i32, ptr %42, align 4, !tbaa !29
  %44 = icmp sgt i32 %43, 1
  br i1 %44, label %45, label %46

45:                                               ; preds = %40
  call void (i32, ptr, ...) @pmix_output(i32 noundef %39, ptr noundef nonnull @.str.1, i64 noundef %1, i64 noundef %32) #9
  br label %46

46:                                               ; preds = %37, %40, %45, %9, %4, %36, %28, %19, %14
  %.0 = phi i1 [ false, %14 ], [ false, %19 ], [ false, %28 ], [ false, %36 ], [ false, %4 ], [ false, %9 ], [ true, %45 ], [ true, %40 ], [ true, %37 ]
  call void @llvm.lifetime.end.p0(i64 112, ptr nonnull %5) #9
  ret i1 %.0
}